target datalayout = "e-m:e-p270:32:32-p271:32:32-p272:64:64-i64:64-i128:128-f80:128-n8:16:32:64-S128"
target triple = "x86_64-unknown-linux-gnu"

%"class.icu_75::MaybeStackArray" = type <{ ptr, i32, i8, [40 x i8], [3 x i8] }>
%"class.icu_75::LocaleBuilder" = type { %"class.icu_75::UObject", i32, [9 x i8], [5 x i8], [4 x i8], ptr, ptr }
%"class.icu_75::UObject" = type { ptr }
%"class.icu_75::CharString" = type { %"class.icu_75::MaybeStackArray", i32, [4 x i8] }
%"class.icu_75::StringPiece" = type <{ ptr, i32, [4 x i8] }>

@_ZN6icu_7515MaybeStackArrayIcLi40EEC1Ev = weak_odr unnamed_addr alias void (ptr), ptr @_ZN6icu_7515MaybeStackArrayIcLi40EEC2Ev
@_ZN6icu_7515MaybeStackArrayIcLi40EED1Ev = weak_odr unnamed_addr alias void (ptr), ptr @_ZN6icu_7515MaybeStackArrayIcLi40EED2Ev

; Function Attrs: mustprogress nounwind uwtable
define linkonce_odr noundef i32 @_ZNK6icu_7511StringPiece6lengthEv(ptr noundef nonnull align 8 dereferenceable(12) %this) #0 comdat align 2 {
entry:
  %this.addr = alloca ptr, align 8
  store ptr %this, ptr %this.addr, align 8
  %this1 = load ptr, ptr %this.addr, align 8
  %length_ = getelementptr inbounds %"class.icu_75::StringPiece", ptr %this1, i32 0, i32 1
  %0 = load i32, ptr %length_, align 8
  ret i32 %0
}

; Function Attrs: mustprogress nounwind uwtable
define linkonce_odr noundef ptr @_ZNK6icu_7511StringPiece4dataEv(ptr noundef nonnull align 8 dereferenceable(12) %this) #0 comdat align 2 {
entry:
  %this.addr = alloca ptr, align 8
  store ptr %this, ptr %this.addr, align 8
  %this1 = load ptr, ptr %this.addr, align 8
  %ptr_ = getelementptr inbounds %"class.icu_75::StringPiece", ptr %this1, i32 0, i32 0
  %0 = load ptr, ptr %ptr_, align 8
  ret ptr %0
}

; Function Attrs: mustprogress nounwind uwtable
define weak_odr noundef ptr @_ZNK6icu_7515MaybeStackArrayIcLi40EE8getAliasEv(ptr noundef nonnull align 8 dereferenceable(53) %this) #0 comdat align 2 {
entry:
  %this.addr = alloca ptr, align 8
  store ptr %this, ptr %this.addr, align 8
  %this1 = load ptr, ptr %this.addr, align 8
  %ptr = getelementptr inbounds %"class.icu_75::MaybeStackArray", ptr %this1, i32 0, i32 0
  %0 = load ptr, ptr %ptr, align 8
  ret ptr %0
}

; Function Attrs: mustprogress uwtable
define linkonce_odr noundef nonnull align 8 dereferenceable(60) ptr @_ZN6icu_7510CharString6appendENS_11StringPieceER10UErrorCode(ptr noundef nonnull align 8 dereferenceable(60) %this, ptr %s.coerce0, i32 %s.coerce1, ptr noundef nonnull align 4 dereferenceable(4) %errorCode) #1 comdat align 2 {
entry:
  %s = alloca %"class.icu_75::StringPiece", align 8
  %this.addr = alloca ptr, align 8
  %errorCode.addr = alloca ptr, align 8
  %0 = getelementptr inbounds { ptr, i32 }, ptr %s, i32 0, i32 0
  store ptr %s.coerce0, ptr %0, align 8
  %1 = getelementptr inbounds { ptr, i32 }, ptr %s, i32 0, i32 1
  store i32 %s.coerce1, ptr %1, align 8
  store ptr %this, ptr %this.addr, align 8
  store ptr %errorCode, ptr %errorCode.addr, align 8
  %this1 = load ptr, ptr %this.addr, align 8
  %call = call noundef ptr @_ZNK6icu_7511StringPiece4dataEv(ptr noundef nonnull align 8 dereferenceable(12) %s)
  %call2 = call noundef i32 @_ZNK6icu_7511StringPiece6lengthEv(ptr noundef nonnull align 8 dereferenceable(12) %s)
  %2 = load ptr, ptr %errorCode.addr, align 8
  %call3 = call noundef nonnull align 8 dereferenceable(60) ptr @_ZN6icu_7510CharString6appendEPKciR10UErrorCode(ptr noundef nonnull align 8 dereferenceable(60) %this1, ptr noundef %call, i32 noundef %call2, ptr noundef nonnull align 4 dereferenceable(4) %2)
  ret ptr %call3
}

; Function Attrs: mustprogress nounwind uwtable
define weak_odr noundef nonnull align 1 dereferenceable(1) ptr @_ZN6icu_7515MaybeStackArrayIcLi40EEixEl(ptr noundef nonnull align 8 dereferenceable(53) %this, i64 noundef %i) #0 comdat align 2 {
entry:
  %this.addr = alloca ptr, align 8
  %i.addr = alloca i64, align 8
  store ptr %this, ptr %this.addr, align 8
  store i64 %i, ptr %i.addr, align 8
  %this1 = load ptr, ptr %this.addr, align 8
  %ptr = getelementptr inbounds %"class.icu_75::MaybeStackArray", ptr %this1, i32 0, i32 0
  %0 = load ptr, ptr %ptr, align 8
  %1 = load i64, ptr %i.addr, align 8
  %arrayidx = getelementptr inbounds i8, ptr %0, i64 %1
  ret ptr %arrayidx
}

; Function Attrs: mustprogress uwtable
define internal void @_ZN6icu_75L9transformEPci(ptr noundef %data, i32 noundef %len) #1 {
entry:
  %data.addr = alloca ptr, align 8
  %len.addr = alloca i32, align 4
  %i = alloca i32, align 4
  store ptr %data, ptr %data.addr, align 8
  store i32 %len, ptr %len.addr, align 4
  store i32 0, ptr %i, align 4
  br label %for.cond

for.cond:                                         ; preds = %for.inc, %entry
  %0 = load i32, ptr %i, align 4
  %1 = load i32, ptr %len.addr, align 4
  %cmp = icmp slt i32 %0, %1
  br i1 %cmp, label %for.body, label %for.end

for.body:                                         ; preds = %for.cond
  %2 = load ptr, ptr %data.addr, align 8
  %3 = load i8, ptr %2, align 1
  %conv = sext i8 %3 to i32
  %cmp1 = icmp eq i32 %conv, 95
  br i1 %cmp1, label %if.then, label %if.else

if.then:                                          ; preds = %for.body
  %4 = load ptr, ptr %data.addr, align 8
  store i8 45, ptr %4, align 1
  br label %if.end

if.else:                                          ; preds = %for.body
  %5 = load ptr, ptr %data.addr, align 8
  %6 = load i8, ptr %5, align 1
  %call = call signext i8 @uprv_asciitolower_75(i8 noundef signext %6)
  %7 = load ptr, ptr %data.addr, align 8
  store i8 %call, ptr %7, align 1
  br label %if.end

if.end:                                           ; preds = %if.else, %if.then
  br label %for.inc

for.inc:                                          ; preds = %if.end
  %8 = load i32, ptr %i, align 4
  %inc = add nsw i32 %8, 1
  store i32 %inc, ptr %i, align 4
  %9 = load ptr, ptr %data.addr, align 8
  %incdec.ptr = getelementptr inbounds i8, ptr %9, i32 1
  store ptr %incdec.ptr, ptr %data.addr, align 8
  br label %for.cond, !llvm.loop !4

for.end:                                          ; preds = %for.cond
  ret void
}

; Function Attrs: mustprogress nounwind uwtable
define linkonce_odr noundef i32 @_ZNK6icu_7510CharString6lengthEv(ptr noundef nonnull align 8 dereferenceable(60) %this) #0 comdat align 2 {
entry:
  %this.addr = alloca ptr, align 8
  store ptr %this, ptr %this.addr, align 8
  %this1 = load ptr, ptr %this.addr, align 8
  %len = getelementptr inbounds %"class.icu_75::CharString", ptr %this1, i32 0, i32 1
  %0 = load i32, ptr %len, align 8
  ret i32 %0
}

; Function Attrs: mustprogress nounwind uwtable
define linkonce_odr noundef ptr @_ZN6icu_7510CharString4dataEv(ptr noundef nonnull align 8 dereferenceable(60) %this) #0 comdat align 2 {
entry:
  %this.addr = alloca ptr, align 8
  store ptr %this, ptr %this.addr, align 8
  %this1 = load ptr, ptr %this.addr, align 8
  %buffer = getelementptr inbounds %"class.icu_75::CharString", ptr %this1, i32 0, i32 0
  %call = call noundef ptr @_ZNK6icu_7515MaybeStackArrayIcLi40EE8getAliasEv(ptr noundef nonnull align 8 dereferenceable(53) %buffer)
  ret ptr %call
}

; Function Attrs: mustprogress uwtable
define linkonce_odr void @_ZN6icu_7510CharStringC2ENS_11StringPieceER10UErrorCode(ptr noundef nonnull align 8 dereferenceable(60) %this, ptr %s.coerce0, i32 %s.coerce1, ptr noundef nonnull align 4 dereferenceable(4) %errorCode) unnamed_addr #1 comdat align 2 personality ptr @__gxx_personality_v0 {
entry:
  %s = alloca %"class.icu_75::StringPiece", align 8
  %this.addr = alloca ptr, align 8
  %errorCode.addr = alloca ptr, align 8
  %agg.tmp = alloca %"class.icu_75::StringPiece", align 8
  %exn.slot = alloca ptr, align 8
  %ehselector.slot = alloca i32, align 4
  %0 = getelementptr inbounds { ptr, i32 }, ptr %s, i32 0, i32 0
  store ptr %s.coerce0, ptr %0, align 8
  %1 = getelementptr inbounds { ptr, i32 }, ptr %s, i32 0, i32 1
  store i32 %s.coerce1, ptr %1, align 8
  store ptr %this, ptr %this.addr, align 8
  store ptr %errorCode, ptr %errorCode.addr, align 8
  %this1 = load ptr, ptr %this.addr, align 8
  %buffer = getelementptr inbounds %"class.icu_75::CharString", ptr %this1, i32 0, i32 0
  call void @_ZN6icu_7515MaybeStackArrayIcLi40EEC1Ev(ptr noundef nonnull align 8 dereferenceable(53) %buffer)
  %len = getelementptr inbounds %"class.icu_75::CharString", ptr %this1, i32 0, i32 1
  store i32 0, ptr %len, align 8
  %buffer2 = getelementptr inbounds %"class.icu_75::CharString", ptr %this1, i32 0, i32 0
  %call = call noundef nonnull align 1 dereferenceable(1) ptr @_ZN6icu_7515MaybeStackArrayIcLi40EEixEl(ptr noundef nonnull align 8 dereferenceable(53) %buffer2, i64 noundef 0)
  store i8 0, ptr %call, align 1
  call void @llvm.memcpy.p0.p0.i64(ptr align 8 %agg.tmp, ptr align 8 %s, i64 16, i1 false)
  %2 = load ptr, ptr %errorCode.addr, align 8
  %3 = getelementptr inbounds { ptr, i32 }, ptr %agg.tmp, i32 0, i32 0
  %4 = load ptr, ptr %3, align 8
  %5 = getelementptr inbounds { ptr, i32 }, ptr %agg.tmp, i32 0, i32 1
  %6 = load i32, ptr %5, align 8
  %call3 = invoke noundef nonnull align 8 dereferenceable(60) ptr @_ZN6icu_7510CharString6appendENS_11StringPieceER10UErrorCode(ptr noundef nonnull align 8 dereferenceable(60) %this1, ptr %4, i32 %6, ptr noundef nonnull align 4 dereferenceable(4) %2)
          to label %invoke.cont unwind label %lpad

invoke.cont:                                      ; preds = %entry
  ret void

lpad:                                             ; preds = %entry
  %7 = landingpad { ptr, i32 }
          cleanup
  %8 = extractvalue { ptr, i32 } %7, 0
  store ptr %8, ptr %exn.slot, align 8
  %9 = extractvalue { ptr, i32 } %7, 1
  store i32 %9, ptr %ehselector.slot, align 4
  call void @_ZN6icu_7515MaybeStackArrayIcLi40EED1Ev(ptr noundef nonnull align 8 dereferenceable(53) %buffer) #9
  br label %eh.resume

eh.resume:                                        ; preds = %lpad
  %exn = load ptr, ptr %exn.slot, align 8
  %sel = load i32, ptr %ehselector.slot, align 4
  %lpad.val = insertvalue { ptr, i32 } poison, ptr %exn, 0
  %lpad.val4 = insertvalue { ptr, i32 } %lpad.val, i32 %sel, 1
  resume { ptr, i32 } %lpad.val4
}

; Function Attrs: mustprogress nounwind uwtable
define linkonce_odr void @_ZN6icu_7510CharStringD2Ev(ptr noundef nonnull align 8 dereferenceable(60) %this) unnamed_addr #0 comdat align 2 {
entry:
  %this.addr = alloca ptr, align 8
  store ptr %this, ptr %this.addr, align 8
  %this1 = load ptr, ptr %this.addr, align 8
  %buffer = getelementptr inbounds %"class.icu_75::CharString", ptr %this1, i32 0, i32 0
  call void @_ZN6icu_7515MaybeStackArrayIcLi40EED1Ev(ptr noundef nonnull align 8 dereferenceable(53) %buffer) #9
  ret void
}

; Function Attrs: mustprogress nounwind uwtable
define linkonce_odr noundef signext i8 @_ZNK6icu_7511StringPiece5emptyEv(ptr noundef nonnull align 8 dereferenceable(12) %this) #0 comdat align 2 {
entry:
  %this.addr = alloca ptr, align 8
  store ptr %this, ptr %this.addr, align 8
  %this1 = load ptr, ptr %this.addr, align 8
  %length_ = getelementptr inbounds %"class.icu_75::StringPiece", ptr %this1, i32 0, i32 1
  %0 = load i32, ptr %length_, align 8
  %cmp = icmp eq i32 %0, 0
  %conv = zext i1 %cmp to i8
  ret i8 %conv
}

; Function Attrs: mustprogress nounwind uwtable
define internal noundef signext i8 @_ZL9U_FAILURE10UErrorCode(i32 noundef %code) #0 {
entry:
  %code.addr = alloca i32, align 4
  store i32 %code, ptr %code.addr, align 4
  %0 = load i32, ptr %code.addr, align 4
  %cmp = icmp sgt i32 %0, 0
  %conv = zext i1 %cmp to i8
  ret i8 %conv
}

; Function Attrs: mustprogress uwtable
define noundef nonnull align 8 dereferenceable(48) ptr @_ZN6icu_7513LocaleBuilder10setVariantENS_11StringPieceE(ptr noundef nonnull align 8 dereferenceable(48) %this, ptr %variant.coerce0, i32 %variant.coerce1) #1 align 2 personality ptr @__gxx_personality_v0 {
entry:
  %retval = alloca ptr, align 8
  %variant = alloca %"class.icu_75::StringPiece", align 8
  %this.addr = alloca ptr, align 8
  %new_variant = alloca ptr, align 8
  %saved-rvalue = alloca ptr, align 8
  %cleanup.cond = alloca i1, align 1
  %agg.tmp = alloca %"class.icu_75::StringPiece", align 8
  %exn.slot = alloca ptr, align 8
  %ehselector.slot = alloca i32, align 4
  %0 = getelementptr inbounds { ptr, i32 }, ptr %variant, i32 0, i32 0
  store ptr %variant.coerce0, ptr %0, align 8
  %1 = getelementptr inbounds { ptr, i32 }, ptr %variant, i32 0, i32 1
  store i32 %variant.coerce1, ptr %1, align 8
  store ptr %this, ptr %this.addr, align 8
  %this1 = load ptr, ptr %this.addr, align 8
  %status_ = getelementptr inbounds %"class.icu_75::LocaleBuilder", ptr %this1, i32 0, i32 1
  %2 = load i32, ptr %status_, align 8
  %call = call noundef signext i8 @_ZL9U_FAILURE10UErrorCode(i32 noundef %2)
  %tobool = icmp ne i8 %call, 0
  br i1 %tobool, label %if.then, label %if.end

if.then:                                          ; preds = %entry
  store ptr %this1, ptr %retval, align 8
  br label %return

if.end:                                           ; preds = %entry
  %call2 = call noundef signext i8 @_ZNK6icu_7511StringPiece5emptyEv(ptr noundef nonnull align 8 dereferenceable(12) %variant)
  %tobool3 = icmp ne i8 %call2, 0
  br i1 %tobool3, label %if.then4, label %if.end6

if.then4:                                         ; preds = %if.end
  %variant_ = getelementptr inbounds %"class.icu_75::LocaleBuilder", ptr %this1, i32 0, i32 5
  %3 = load ptr, ptr %variant_, align 8
  %isnull = icmp eq ptr %3, null
  br i1 %isnull, label %delete.end, label %delete.notnull

delete.notnull:                                   ; preds = %if.then4
  call void @_ZN6icu_7510CharStringD2Ev(ptr noundef nonnull align 8 dereferenceable(60) %3) #9
  call void @_ZN6icu_757UMemorydlEPv(ptr noundef %3) #9
  br label %delete.end

delete.end:                                       ; preds = %delete.notnull, %if.then4
  %variant_5 = getelementptr inbounds %"class.icu_75::LocaleBuilder", ptr %this1, i32 0, i32 5
  store ptr null, ptr %variant_5, align 8
  store ptr %this1, ptr %retval, align 8
  br label %return

if.end6:                                          ; preds = %if.end
  %call7 = call noundef ptr @_ZN6icu_757UMemorynwEm(i64 noundef 64) #9
  %new.isnull = icmp eq ptr %call7, null
  store i1 false, ptr %cleanup.cond, align 1
  br i1 %new.isnull, label %new.cont, label %new.notnull

new.notnull:                                      ; preds = %if.end6
  store ptr %call7, ptr %saved-rvalue, align 8
  store i1 true, ptr %cleanup.cond, align 1
  call void @llvm.memcpy.p0.p0.i64(ptr align 8 %agg.tmp, ptr align 8 %variant, i64 16, i1 false)
  %status_8 = getelementptr inbounds %"class.icu_75::LocaleBuilder", ptr %this1, i32 0, i32 1
  %4 = getelementptr inbounds { ptr, i32 }, ptr %agg.tmp, i32 0, i32 0
  %5 = load ptr, ptr %4, align 8
  %6 = getelementptr inbounds { ptr, i32 }, ptr %agg.tmp, i32 0, i32 1
  %7 = load i32, ptr %6, align 8
  invoke void @_ZN6icu_7510CharStringC2ENS_11StringPieceER10UErrorCode(ptr noundef nonnull align 8 dereferenceable(60) %call7, ptr %5, i32 %7, ptr noundef nonnull align 4 dereferenceable(4) %status_8)
          to label %invoke.cont unwind label %lpad

invoke.cont:                                      ; preds = %new.notnull
  br label %new.cont

new.cont:                                         ; preds = %invoke.cont, %if.end6
  %8 = phi ptr [ %call7, %invoke.cont ], [ null, %if.end6 ]
  store ptr %8, ptr %new_variant, align 8
  %status_9 = getelementptr inbounds %"class.icu_75::LocaleBuilder", ptr %this1, i32 0, i32 1
  %9 = load i32, ptr %status_9, align 8
  %call10 = call noundef signext i8 @_ZL9U_FAILURE10UErrorCode(i32 noundef %9)
  %tobool11 = icmp ne i8 %call10, 0
  br i1 %tobool11, label %if.then12, label %if.end13

if.then12:                                        ; preds = %new.cont
  store ptr %this1, ptr %retval, align 8
  br label %return

lpad:                                             ; preds = %new.notnull
  %10 = landingpad { ptr, i32 }
          cleanup
  %11 = extractvalue { ptr, i32 } %10, 0
  store ptr %11, ptr %exn.slot, align 8
  %12 = extractvalue { ptr, i32 } %10, 1
  store i32 %12, ptr %ehselector.slot, align 4
  %cleanup.is_active = load i1, ptr %cleanup.cond, align 1
  br i1 %cleanup.is_active, label %cleanup.action, label %cleanup.done

cleanup.action:                                   ; preds = %lpad
  %13 = load ptr, ptr %saved-rvalue, align 8
  call void @_ZN6icu_757UMemorydlEPv(ptr noundef %13) #9
  br label %cleanup.done

cleanup.done:                                     ; preds = %cleanup.action, %lpad
  br label %eh.resume

if.end13:                                         ; preds = %new.cont
  %14 = load ptr, ptr %new_variant, align 8
  %cmp = icmp eq ptr %14, null
  br i1 %cmp, label %if.then14, label %if.end16

if.then14:                                        ; preds = %if.end13
  %status_15 = getelementptr inbounds %"class.icu_75::LocaleBuilder", ptr %this1, i32 0, i32 1
  store i32 7, ptr %status_15, align 8
  store ptr %this1, ptr %retval, align 8
  br label %return

if.end16:                                         ; preds = %if.end13
  %15 = load ptr, ptr %new_variant, align 8
  %call17 = call noundef ptr @_ZN6icu_7510CharString4dataEv(ptr noundef nonnull align 8 dereferenceable(60) %15)
  %16 = load ptr, ptr %new_variant, align 8
  %call18 = call noundef i32 @_ZNK6icu_7510CharString6lengthEv(ptr noundef nonnull align 8 dereferenceable(60) %16)
  call void @_ZN6icu_75L9transformEPci(ptr noundef %call17, i32 noundef %call18)
  %17 = load ptr, ptr %new_variant, align 8
  %call19 = call noundef ptr @_ZN6icu_7510CharString4dataEv(ptr noundef nonnull align 8 dereferenceable(60) %17)
  %18 = load ptr, ptr %new_variant, align 8
  %call20 = call noundef i32 @_ZNK6icu_7510CharString6lengthEv(ptr noundef nonnull align 8 dereferenceable(60) %18)
  %call21 = call signext i8 @ultag_isVariantSubtags_75(ptr noundef %call19, i32 noundef %call20)
  %tobool22 = icmp ne i8 %call21, 0
  br i1 %tobool22, label %if.end28, label %if.then23

if.then23:                                        ; preds = %if.end16
  %19 = load ptr, ptr %new_variant, align 8
  %isnull24 = icmp eq ptr %19, null
  br i1 %isnull24, label %delete.end26, label %delete.notnull25

delete.notnull25:                                 ; preds = %if.then23
  call void @_ZN6icu_7510CharStringD2Ev(ptr noundef nonnull align 8 dereferenceable(60) %19) #9
  call void @_ZN6icu_757UMemorydlEPv(ptr noundef %19) #9
  br label %delete.end26

delete.end26:                                     ; preds = %delete.notnull25, %if.then23
  %status_27 = getelementptr inbounds %"class.icu_75::LocaleBuilder", ptr %this1, i32 0, i32 1
  store i32 1, ptr %status_27, align 8
  store ptr %this1, ptr %retval, align 8
  br label %return

if.end28:                                         ; preds = %if.end16
  %variant_29 = getelementptr inbounds %"class.icu_75::LocaleBuilder", ptr %this1, i32 0, i32 5
  %20 = load ptr, ptr %variant_29, align 8
  %isnull30 = icmp eq ptr %20, null
  br i1 %isnull30, label %delete.end32, label %delete.notnull31

delete.notnull31:                                 ; preds = %if.end28
  call void @_ZN6icu_7510CharStringD2Ev(ptr noundef nonnull align 8 dereferenceable(60) %20) #9
  call void @_ZN6icu_757UMemorydlEPv(ptr noundef %20) #9
  br label %delete.end32

delete.end32:                                     ; preds = %delete.notnull31, %if.end28
  %21 = load ptr, ptr %new_variant, align 8
  %variant_33 = getelementptr inbounds %"class.icu_75::LocaleBuilder", ptr %this1, i32 0, i32 5
  store ptr %21, ptr %variant_33, align 8
  store ptr %this1, ptr %retval, align 8
  br label %return

return:                                           ; preds = %delete.end32, %delete.end26, %if.then14, %if.then12, %delete.end, %if.then
  %22 = load ptr, ptr %retval, align 8
  ret ptr %22

eh.resume:                                        ; preds = %cleanup.done
  %exn = load ptr, ptr %exn.slot, align 8
  %sel = load i32, ptr %ehselector.slot, align 4
  %lpad.val = insertvalue { ptr, i32 } poison, ptr %exn, 0
  %lpad.val34 = insertvalue { ptr, i32 } %lpad.val, i32 %sel, 1
  resume { ptr, i32 } %lpad.val34
}