; Function Attrs: mustprogress uwtable
define noundef nonnull align 8 dereferenceable(48) ptr @_ZN6icu_7513LocaleBuilder10setVariantENS_11StringPieceE(ptr noundef nonnull returned align 8 dereferenceable(48) %this, ptr %variant.coerce0, i32 %variant.coerce1) local_unnamed_addr #1 align 2 personality ptr @__gxx_personality_v0 {
entry:
  %status_ = getelementptr inbounds i8, ptr %this, i64 8
  %0 = load i32, ptr %status_, align 8
  %cmp.i = icmp slt i32 %0, 1
  br i1 %cmp.i, label %if.end, label %return

if.end:                                           ; preds = %entry
  %cmp.i9.not = icmp eq i32 %variant.coerce1, 0
  br i1 %cmp.i9.not, label %if.then4, label %if.end6

if.then4:                                         ; preds = %if.end
  %variant_ = getelementptr inbounds i8, ptr %this, i64 32
  %1 = load ptr, ptr %variant_, align 8
  %isnull = icmp eq ptr %1, null
  br i1 %isnull, label %delete.end, label %delete.notnull

delete.notnull:                                   ; preds = %if.then4
  tail call void @_ZN6icu_7515MaybeStackArrayIcLi40EED1Ev(ptr noundef nonnull align 8 dereferenceable(53) %1) #13
  tail call void @_ZN6icu_757UMemorydlEPv(ptr noundef nonnull %1) #13
  br label %delete.end

delete.end:                                       ; preds = %delete.notnull, %if.then4
  store ptr null, ptr %variant_, align 8
  br label %return

if.end6:                                          ; preds = %if.end
  %call7 = tail call noundef ptr @_ZN6icu_757UMemorynwEm(i64 noundef 64) #13
  %new.isnull = icmp eq ptr %call7, null
  br i1 %new.isnull, label %new.cont.thread, label %new.notnull

new.notnull:                                      ; preds = %if.end6
  invoke void @_ZN6icu_7515MaybeStackArrayIcLi40EEC1Ev(ptr noundef nonnull align 8 dereferenceable(53) %call7)
          to label %.noexc unwind label %lpad

.noexc:                                           ; preds = %new.notnull
  %len.i = getelementptr inbounds i8, ptr %call7, i64 56
  store i32 0, ptr %len.i, align 8
  %2 = load ptr, ptr %call7, align 8
  store i8 0, ptr %2, align 1
  %call3.i1.i = invoke noundef nonnull align 8 dereferenceable(60) ptr @_ZN6icu_7510CharString6appendEPKciR10UErrorCode(ptr noundef nonnull align 8 dereferenceable(60) %call7, ptr noundef %variant.coerce0, i32 noundef %variant.coerce1, ptr noundef nonnull align 4 dereferenceable(4) %status_)
          to label %new.cont unwind label %lpad.i

lpad.i:                                           ; preds = %.noexc
  %3 = landingpad { ptr, i32 }
          cleanup
  tail call void @_ZN6icu_7515MaybeStackArrayIcLi40EED1Ev(ptr noundef nonnull align 8 dereferenceable(53) %call7) #13
  br label %lpad.body

new.cont:                                         ; preds = %.noexc
  %4 = load i32, ptr %status_, align 8
  %cmp.i11 = icmp slt i32 %4, 1
  br i1 %cmp.i11, label %if.end16, label %return

new.cont.thread:                                  ; preds = %if.end6
  %5 = load i32, ptr %status_, align 8
  %cmp.i1116 = icmp slt i32 %5, 1
  br i1 %cmp.i1116, label %if.then14, label %return

lpad:                                             ; preds = %new.notnull
  %6 = landingpad { ptr, i32 }
          cleanup
  br label %lpad.body

lpad.body:                                        ; preds = %lpad.i, %lpad
  %eh.lpad-body = phi { ptr, i32 } [ %6, %lpad ], [ %3, %lpad.i ]
  tail call void @_ZN6icu_757UMemorydlEPv(ptr noundef nonnull %call7) #13
  resume { ptr, i32 } %eh.lpad-body

if.then14:                                        ; preds = %new.cont.thread
  store i32 7, ptr %status_, align 8
  br label %return

if.end16:                                         ; preds = %new.cont
  %7 = load ptr, ptr %call7, align 8
  %8 = load i32, ptr %len.i, align 8
  %cmp6.i = icmp sgt i32 %8, 0
  br i1 %cmp6.i, label %for.body.i, label %_ZN6icu_75L9transformEPci.exit

for.body.i:                                       ; preds = %if.end16, %for.inc.i
  %i.08.i = phi i32 [ %inc.i, %for.inc.i ], [ 0, %if.end16 ]
  %data.addr.07.i = phi ptr [ %incdec.ptr.i, %for.inc.i ], [ %7, %if.end16 ]
  %9 = load i8, ptr %data.addr.07.i, align 1
  %cmp1.i = icmp eq i8 %9, 95
  br i1 %cmp1.i, label %for.inc.i, label %if.else.i

if.else.i:                                        ; preds = %for.body.i
  %call.i = tail call signext i8 @uprv_asciitolower_75(i8 noundef signext %9)
  br label %for.inc.i

for.inc.i:                                        ; preds = %if.else.i, %for.body.i
  %storemerge.i = phi i8 [ %call.i, %if.else.i ], [ 45, %for.body.i ]
  store i8 %storemerge.i, ptr %data.addr.07.i, align 1
  %inc.i = add nuw nsw i32 %i.08.i, 1
  %incdec.ptr.i = getelementptr inbounds i8, ptr %data.addr.07.i, i64 1
  %exitcond.not.i = icmp eq i32 %inc.i, %8
  br i1 %exitcond.not.i, label %_ZN6icu_75L9transformEPci.exit.loopexit, label %for.body.i, !llvm.loop !5

_ZN6icu_75L9transformEPci.exit.loopexit:          ; preds = %for.inc.i
  %.pre = load ptr, ptr %call7, align 8
  %.pre20 = load i32, ptr %len.i, align 8
  br label %_ZN6icu_75L9transformEPci.exit

_ZN6icu_75L9transformEPci.exit:                   ; preds = %_ZN6icu_75L9transformEPci.exit.loopexit, %if.end16
  %10 = phi i32 [ %.pre20, %_ZN6icu_75L9transformEPci.exit.loopexit ], [ %8, %if.end16 ]
  %11 = phi ptr [ %.pre, %_ZN6icu_75L9transformEPci.exit.loopexit ], [ %7, %if.end16 ]
  %call21 = tail call signext i8 @ultag_isVariantSubtags_75(ptr noundef %11, i32 noundef %10)
  %tobool22.not = icmp eq i8 %call21, 0
  br i1 %tobool22.not, label %delete.notnull25, label %if.end28

delete.notnull25:                                 ; preds = %_ZN6icu_75L9transformEPci.exit
  tail call void @_ZN6icu_7515MaybeStackArrayIcLi40EED1Ev(ptr noundef nonnull align 8 dereferenceable(53) %call7) #13
  tail call void @_ZN6icu_757UMemorydlEPv(ptr noundef nonnull %call7) #13
  store i32 1, ptr %status_, align 8
  br label %return

if.end28:                                         ; preds = %_ZN6icu_75L9transformEPci.exit
  %variant_29 = getelementptr inbounds i8, ptr %this, i64 32
  %12 = load ptr, ptr %variant_29, align 8
  %isnull30 = icmp eq ptr %12, null
  br i1 %isnull30, label %delete.end32, label %delete.notnull31

delete.notnull31:                                 ; preds = %if.end28
  tail call void @_ZN6icu_7515MaybeStackArrayIcLi40EED1Ev(ptr noundef nonnull align 8 dereferenceable(53) %12) #13
  tail call void @_ZN6icu_757UMemorydlEPv(ptr noundef nonnull %12) #13
  br label %delete.end32

delete.end32:                                     ; preds = %delete.notnull31, %if.end28
  store ptr %call7, ptr %variant_29, align 8
  br label %return

return:                                           ; preds = %new.cont.thread, %new.cont, %entry, %delete.end32, %delete.notnull25, %if.then14, %delete.end
  ret ptr %this
}